target datalayout = "e-m:e-p270:32:32-p271:32:32-p272:64:64-i64:64-i128:128-f80:128-n8:16:32:64-S128"
target triple = "x86_64-pc-linux-gnu"

%struct.lean_object = type { i32, i32 }

; Function Attrs: inlinehint nounwind uwtable
define internal ptr @lean_box(i64 noundef %0) #1 {
  %2 = alloca i64, align 8
  store i64 %0, ptr %2, align 8, !tbaa !8
  %3 = load i64, ptr %2, align 8, !tbaa !8
  %4 = shl i64 %3, 1
  %5 = or i64 %4, 1
  %6 = inttoptr i64 %5 to ptr
  ret ptr %6
}

; Function Attrs: inlinehint nounwind uwtable
define internal ptr @lean_usize_to_nat(i64 noundef %0) #1 {
  %2 = alloca ptr, align 8
  %3 = alloca i64, align 8
  store i64 %0, ptr %3, align 8, !tbaa !8
  %4 = load i64, ptr %3, align 8, !tbaa !8
  %5 = icmp ule i64 %4, 9223372036854775807
  %6 = zext i1 %5 to i32
  %7 = sext i32 %6 to i64
  %8 = call i64 @llvm.expect.i64(i64 %7, i64 1)
  %9 = icmp ne i64 %8, 0
  br i1 %9, label %10, label %13

10:                                               ; preds = %1
  %11 = load i64, ptr %3, align 8, !tbaa !8
  %12 = call ptr @lean_box(i64 noundef %11)
  store ptr %12, ptr %2, align 8
  br label %16

13:                                               ; preds = %1
  %14 = load i64, ptr %3, align 8, !tbaa !8
  %15 = call ptr @lean_big_usize_to_nat(i64 noundef %14)
  store ptr %15, ptr %2, align 8
  br label %16

16:                                               ; preds = %13, %10
  %17 = load ptr, ptr %2, align 8
  ret ptr %17
}

; Function Attrs: inlinehint nounwind uwtable
define internal ptr @lean_unsigned_to_nat(i32 noundef %0) #1 {
  %2 = alloca i32, align 4
  store i32 %0, ptr %2, align 4, !tbaa !16
  %3 = load i32, ptr %2, align 4, !tbaa !16
  %4 = zext i32 %3 to i64
  %5 = call ptr @lean_usize_to_nat(i64 noundef %4)
  ret ptr %5
}

; Function Attrs: nounwind uwtable
define ptr @l_Lean_Lsp_SemanticTokenType_toCtorIdx(i8 noundef zeroext %0) #2 {
  %2 = alloca ptr, align 8
  %3 = alloca i8, align 1
  %4 = alloca ptr, align 8
  %5 = alloca ptr, align 8
  %6 = alloca ptr, align 8
  %7 = alloca ptr, align 8
  %8 = alloca ptr, align 8
  %9 = alloca ptr, align 8
  %10 = alloca ptr, align 8
  %11 = alloca ptr, align 8
  %12 = alloca ptr, align 8
  %13 = alloca ptr, align 8
  %14 = alloca ptr, align 8
  %15 = alloca ptr, align 8
  %16 = alloca ptr, align 8
  %17 = alloca ptr, align 8
  %18 = alloca ptr, align 8
  %19 = alloca ptr, align 8
  %20 = alloca ptr, align 8
  %21 = alloca ptr, align 8
  %22 = alloca ptr, align 8
  %23 = alloca ptr, align 8
  %24 = alloca ptr, align 8
  %25 = alloca ptr, align 8
  %26 = alloca ptr, align 8
  %27 = alloca ptr, align 8
  store i8 %0, ptr %3, align 1, !tbaa !12
  br label %28

28:                                               ; preds = %1
  %29 = load i8, ptr %3, align 1, !tbaa !12
  %30 = zext i8 %29 to i32
  switch i32 %30, label %100 [
    i32 0, label %31
    i32 1, label %34
    i32 2, label %37
    i32 3, label %40
    i32 4, label %43
    i32 5, label %46
    i32 6, label %49
    i32 7, label %52
    i32 8, label %55
    i32 9, label %58
    i32 10, label %61
    i32 11, label %64
    i32 12, label %67
    i32 13, label %70
    i32 14, label %73
    i32 15, label %76
    i32 16, label %79
    i32 17, label %82
    i32 18, label %85
    i32 19, label %88
    i32 20, label %91
    i32 21, label %94
    i32 22, label %97
  ]

31:                                               ; preds = %28
  call void @llvm.lifetime.start.p0(i64 8, ptr %4) #7
  %32 = call ptr @lean_unsigned_to_nat(i32 noundef 0)
  store ptr %32, ptr %4, align 8, !tbaa !4
  %33 = load ptr, ptr %4, align 8, !tbaa !4
  store ptr %33, ptr %2, align 8
  call void @llvm.lifetime.end.p0(i64 8, ptr %4) #7
  br label %103

34:                                               ; preds = %28
  call void @llvm.lifetime.start.p0(i64 8, ptr %5) #7
  %35 = call ptr @lean_unsigned_to_nat(i32 noundef 1)
  store ptr %35, ptr %5, align 8, !tbaa !4
  %36 = load ptr, ptr %5, align 8, !tbaa !4
  store ptr %36, ptr %2, align 8
  call void @llvm.lifetime.end.p0(i64 8, ptr %5) #7
  br label %103

37:                                               ; preds = %28
  call void @llvm.lifetime.start.p0(i64 8, ptr %6) #7
  %38 = call ptr @lean_unsigned_to_nat(i32 noundef 2)
  store ptr %38, ptr %6, align 8, !tbaa !4
  %39 = load ptr, ptr %6, align 8, !tbaa !4
  store ptr %39, ptr %2, align 8
  call void @llvm.lifetime.end.p0(i64 8, ptr %6) #7
  br label %103

40:                                               ; preds = %28
  call void @llvm.lifetime.start.p0(i64 8, ptr %7) #7
  %41 = call ptr @lean_unsigned_to_nat(i32 noundef 3)
  store ptr %41, ptr %7, align 8, !tbaa !4
  %42 = load ptr, ptr %7, align 8, !tbaa !4
  store ptr %42, ptr %2, align 8
  call void @llvm.lifetime.end.p0(i64 8, ptr %7) #7
  br label %103

43:                                               ; preds = %28
  call void @llvm.lifetime.start.p0(i64 8, ptr %8) #7
  %44 = call ptr @lean_unsigned_to_nat(i32 noundef 4)
  store ptr %44, ptr %8, align 8, !tbaa !4
  %45 = load ptr, ptr %8, align 8, !tbaa !4
  store ptr %45, ptr %2, align 8
  call void @llvm.lifetime.end.p0(i64 8, ptr %8) #7
  br label %103

46:                                               ; preds = %28
  call void @llvm.lifetime.start.p0(i64 8, ptr %9) #7
  %47 = call ptr @lean_unsigned_to_nat(i32 noundef 5)
  store ptr %47, ptr %9, align 8, !tbaa !4
  %48 = load ptr, ptr %9, align 8, !tbaa !4
  store ptr %48, ptr %2, align 8
  call void @llvm.lifetime.end.p0(i64 8, ptr %9) #7
  br label %103

49:                                               ; preds = %28
  call void @llvm.lifetime.start.p0(i64 8, ptr %10) #7
  %50 = call ptr @lean_unsigned_to_nat(i32 noundef 6)
  store ptr %50, ptr %10, align 8, !tbaa !4
  %51 = load ptr, ptr %10, align 8, !tbaa !4
  store ptr %51, ptr %2, align 8
  call void @llvm.lifetime.end.p0(i64 8, ptr %10) #7
  br label %103

52:                                               ; preds = %28
  call void @llvm.lifetime.start.p0(i64 8, ptr %11) #7
  %53 = call ptr @lean_unsigned_to_nat(i32 noundef 7)
  store ptr %53, ptr %11, align 8, !tbaa !4
  %54 = load ptr, ptr %11, align 8, !tbaa !4
  store ptr %54, ptr %2, align 8
  call void @llvm.lifetime.end.p0(i64 8, ptr %11) #7
  br label %103

55:                                               ; preds = %28
  call void @llvm.lifetime.start.p0(i64 8, ptr %12) #7
  %56 = call ptr @lean_unsigned_to_nat(i32 noundef 8)
  store ptr %56, ptr %12, align 8, !tbaa !4
  %57 = load ptr, ptr %12, align 8, !tbaa !4
  store ptr %57, ptr %2, align 8
  call void @llvm.lifetime.end.p0(i64 8, ptr %12) #7
  br label %103

58:                                               ; preds = %28
  call void @llvm.lifetime.start.p0(i64 8, ptr %13) #7
  %59 = call ptr @lean_unsigned_to_nat(i32 noundef 9)
  store ptr %59, ptr %13, align 8, !tbaa !4
  %60 = load ptr, ptr %13, align 8, !tbaa !4
  store ptr %60, ptr %2, align 8
  call void @llvm.lifetime.end.p0(i64 8, ptr %13) #7
  br label %103

61:                                               ; preds = %28
  call void @llvm.lifetime.start.p0(i64 8, ptr %14) #7
  %62 = call ptr @lean_unsigned_to_nat(i32 noundef 10)
  store ptr %62, ptr %14, align 8, !tbaa !4
  %63 = load ptr, ptr %14, align 8, !tbaa !4
  store ptr %63, ptr %2, align 8
  call void @llvm.lifetime.end.p0(i64 8, ptr %14) #7
  br label %103

64:                                               ; preds = %28
  call void @llvm.lifetime.start.p0(i64 8, ptr %15) #7
  %65 = call ptr @lean_unsigned_to_nat(i32 noundef 11)
  store ptr %65, ptr %15, align 8, !tbaa !4
  %66 = load ptr, ptr %15, align 8, !tbaa !4
  store ptr %66, ptr %2, align 8
  call void @llvm.lifetime.end.p0(i64 8, ptr %15) #7
  br label %103

67:                                               ; preds = %28
  call void @llvm.lifetime.start.p0(i64 8, ptr %16) #7
  %68 = call ptr @lean_unsigned_to_nat(i32 noundef 12)
  store ptr %68, ptr %16, align 8, !tbaa !4
  %69 = load ptr, ptr %16, align 8, !tbaa !4
  store ptr %69, ptr %2, align 8
  call void @llvm.lifetime.end.p0(i64 8, ptr %16) #7
  br label %103

70:                                               ; preds = %28
  call void @llvm.lifetime.start.p0(i64 8, ptr %17) #7
  %71 = call ptr @lean_unsigned_to_nat(i32 noundef 13)
  store ptr %71, ptr %17, align 8, !tbaa !4
  %72 = load ptr, ptr %17, align 8, !tbaa !4
  store ptr %72, ptr %2, align 8
  call void @llvm.lifetime.end.p0(i64 8, ptr %17) #7
  br label %103

73:                                               ; preds = %28
  call void @llvm.lifetime.start.p0(i64 8, ptr %18) #7
  %74 = call ptr @lean_unsigned_to_nat(i32 noundef 14)
  store ptr %74, ptr %18, align 8, !tbaa !4
  %75 = load ptr, ptr %18, align 8, !tbaa !4
  store ptr %75, ptr %2, align 8
  call void @llvm.lifetime.end.p0(i64 8, ptr %18) #7
  br label %103

76:                                               ; preds = %28
  call void @llvm.lifetime.start.p0(i64 8, ptr %19) #7
  %77 = call ptr @lean_unsigned_to_nat(i32 noundef 15)
  store ptr %77, ptr %19, align 8, !tbaa !4
  %78 = load ptr, ptr %19, align 8, !tbaa !4
  store ptr %78, ptr %2, align 8
  call void @llvm.lifetime.end.p0(i64 8, ptr %19) #7
  br label %103

79:                                               ; preds = %28
  call void @llvm.lifetime.start.p0(i64 8, ptr %20) #7
  %80 = call ptr @lean_unsigned_to_nat(i32 noundef 16)
  store ptr %80, ptr %20, align 8, !tbaa !4
  %81 = load ptr, ptr %20, align 8, !tbaa !4
  store ptr %81, ptr %2, align 8
  call void @llvm.lifetime.end.p0(i64 8, ptr %20) #7
  br label %103

82:                                               ; preds = %28
  call void @llvm.lifetime.start.p0(i64 8, ptr %21) #7
  %83 = call ptr @lean_unsigned_to_nat(i32 noundef 17)
  store ptr %83, ptr %21, align 8, !tbaa !4
  %84 = load ptr, ptr %21, align 8, !tbaa !4
  store ptr %84, ptr %2, align 8
  call void @llvm.lifetime.end.p0(i64 8, ptr %21) #7
  br label %103

85:                                               ; preds = %28
  call void @llvm.lifetime.start.p0(i64 8, ptr %22) #7
  %86 = call ptr @lean_unsigned_to_nat(i32 noundef 18)
  store ptr %86, ptr %22, align 8, !tbaa !4
  %87 = load ptr, ptr %22, align 8, !tbaa !4
  store ptr %87, ptr %2, align 8
  call void @llvm.lifetime.end.p0(i64 8, ptr %22) #7
  br label %103

88:                                               ; preds = %28
  call void @llvm.lifetime.start.p0(i64 8, ptr %23) #7
  %89 = call ptr @lean_unsigned_to_nat(i32 noundef 19)
  store ptr %89, ptr %23, align 8, !tbaa !4
  %90 = load ptr, ptr %23, align 8, !tbaa !4
  store ptr %90, ptr %2, align 8
  call void @llvm.lifetime.end.p0(i64 8, ptr %23) #7
  br label %103

91:                                               ; preds = %28
  call void @llvm.lifetime.start.p0(i64 8, ptr %24) #7
  %92 = call ptr @lean_unsigned_to_nat(i32 noundef 20)
  store ptr %92, ptr %24, align 8, !tbaa !4
  %93 = load ptr, ptr %24, align 8, !tbaa !4
  store ptr %93, ptr %2, align 8
  call void @llvm.lifetime.end.p0(i64 8, ptr %24) #7
  br label %103

94:                                               ; preds = %28
  call void @llvm.lifetime.start.p0(i64 8, ptr %25) #7
  %95 = call ptr @lean_unsigned_to_nat(i32 noundef 21)
  store ptr %95, ptr %25, align 8, !tbaa !4
  %96 = load ptr, ptr %25, align 8, !tbaa !4
  store ptr %96, ptr %2, align 8
  call void @llvm.lifetime.end.p0(i64 8, ptr %25) #7
  br label %103

97:                                               ; preds = %28
  call void @llvm.lifetime.start.p0(i64 8, ptr %26) #7
  %98 = call ptr @lean_unsigned_to_nat(i32 noundef 22)
  store ptr %98, ptr %26, align 8, !tbaa !4
  %99 = load ptr, ptr %26, align 8, !tbaa !4
  store ptr %99, ptr %2, align 8
  call void @llvm.lifetime.end.p0(i64 8, ptr %26) #7
  br label %103

100:                                              ; preds = %28
  call void @llvm.lifetime.start.p0(i64 8, ptr %27) #7
  %101 = call ptr @lean_unsigned_to_nat(i32 noundef 23)
  store ptr %101, ptr %27, align 8, !tbaa !4
  %102 = load ptr, ptr %27, align 8, !tbaa !4
  store ptr %102, ptr %2, align 8
  call void @llvm.lifetime.end.p0(i64 8, ptr %27) #7
  br label %103

103:                                              ; preds = %100, %97, %94, %91, %88, %85, %82, %79, %76, %73, %70, %67, %64, %61, %58, %55, %52, %49, %46, %43, %40, %37, %34, %31
  %104 = load ptr, ptr %2, align 8
  ret ptr %104
}

; Function Attrs: alwaysinline nounwind uwtable
define internal void @lean_dec_ref(ptr noundef %0) #0 {
  %2 = alloca ptr, align 8
  store ptr %0, ptr %2, align 8, !tbaa !4
  %3 = load ptr, ptr %2, align 8, !tbaa !4
  %4 = getelementptr inbounds nuw %struct.lean_object, ptr %3, i32 0, i32 0
  %5 = load i32, ptr %4, align 4, !tbaa !13
  %6 = icmp sgt i32 %5, 1
  %7 = zext i1 %6 to i32
  %8 = sext i32 %7 to i64
  %9 = call i64 @llvm.expect.i64(i64 %8, i64 1)
  %10 = icmp ne i64 %9, 0
  br i1 %10, label %11, label %16

11:                                               ; preds = %1
  %12 = load ptr, ptr %2, align 8, !tbaa !4
  %13 = getelementptr inbounds nuw %struct.lean_object, ptr %12, i32 0, i32 0
  %14 = load i32, ptr %13, align 4, !tbaa !13
  %15 = add i32 %14, -1
  store i32 %15, ptr %13, align 4, !tbaa !13
  br label %24

16:                                               ; preds = %1
  %17 = load ptr, ptr %2, align 8, !tbaa !4
  %18 = getelementptr inbounds nuw %struct.lean_object, ptr %17, i32 0, i32 0
  %19 = load i32, ptr %18, align 4, !tbaa !13
  %20 = icmp ne i32 %19, 0
  br i1 %20, label %21, label %23

21:                                               ; preds = %16
  %22 = load ptr, ptr %2, align 8, !tbaa !4
  call void @lean_dec_ref_cold(ptr noundef %22)
  br label %23

23:                                               ; preds = %21, %16
  br label %24

24:                                               ; preds = %23, %11
  ret void
}

; Function Attrs: alwaysinline nounwind uwtable
define internal zeroext i1 @lean_is_scalar(ptr noundef %0) #0 {
  %2 = alloca ptr, align 8
  store ptr %0, ptr %2, align 8, !tbaa !4
  %3 = load ptr, ptr %2, align 8, !tbaa !4
  %4 = ptrtoint ptr %3 to i64
  %5 = and i64 %4, 1
  %6 = icmp eq i64 %5, 1
  ret i1 %6
}

; Function Attrs: nounwind uwtable
define ptr @l_Lean_Lsp_SemanticTokenType_toNat(i8 noundef zeroext %0) #2 {
  %2 = alloca i8, align 1
  %3 = alloca ptr, align 8
  store i8 %0, ptr %2, align 1, !tbaa !12
  br label %4

4:                                                ; preds = %1
  call void @llvm.lifetime.start.p0(i64 8, ptr %3) #7
  %5 = load i8, ptr %2, align 1, !tbaa !12
  %6 = call ptr @l_Lean_Lsp_SemanticTokenType_toCtorIdx(i8 noundef zeroext %5)
  store ptr %6, ptr %3, align 8, !tbaa !4
  %7 = load ptr, ptr %3, align 8, !tbaa !4
  call void @llvm.lifetime.end.p0(i64 8, ptr %3) #7
  ret ptr %7
}

; Function Attrs: alwaysinline nounwind uwtable
define internal void @lean_dec(ptr noundef %0) #0 {
  %2 = alloca ptr, align 8
  store ptr %0, ptr %2, align 8, !tbaa !4
  %3 = load ptr, ptr %2, align 8, !tbaa !4
  %4 = call zeroext i1 @lean_is_scalar(ptr noundef %3)
  br i1 %4, label %7, label %5

5:                                                ; preds = %1
  %6 = load ptr, ptr %2, align 8, !tbaa !4
  call void @lean_dec_ref(ptr noundef %6)
  br label %7

7:                                                ; preds = %5, %1
  ret void
}

; Function Attrs: inlinehint nounwind uwtable
define internal i64 @lean_unbox(ptr noundef %0) #1 {
  %2 = alloca ptr, align 8
  store ptr %0, ptr %2, align 8, !tbaa !4
  %3 = load ptr, ptr %2, align 8, !tbaa !4
  %4 = ptrtoint ptr %3 to i64
  %5 = lshr i64 %4, 1
  ret i64 %5
}

; Function Attrs: nounwind uwtable
define ptr @l_Lean_Lsp_SemanticTokenType_toNat___boxed(ptr noundef %0) #2 {
  %2 = alloca ptr, align 8
  %3 = alloca i8, align 1
  %4 = alloca ptr, align 8
  store ptr %0, ptr %2, align 8, !tbaa !4
  br label %5

5:                                                ; preds = %1
  call void @llvm.lifetime.start.p0(i64 1, ptr %3) #7
  call void @llvm.lifetime.start.p0(i64 8, ptr %4) #7
  %6 = load ptr, ptr %2, align 8, !tbaa !4
  %7 = call i64 @lean_unbox(ptr noundef %6)
  %8 = trunc i64 %7 to i8
  store i8 %8, ptr %3, align 1, !tbaa !12
  %9 = load ptr, ptr %2, align 8, !tbaa !4
  call void @lean_dec(ptr noundef %9)
  %10 = load i8, ptr %3, align 1, !tbaa !12
  %11 = call ptr @l_Lean_Lsp_SemanticTokenType_toNat(i8 noundef zeroext %10)
  store ptr %11, ptr %4, align 8, !tbaa !4
  %12 = load ptr, ptr %4, align 8, !tbaa !4
  call void @llvm.lifetime.end.p0(i64 8, ptr %4) #7
  call void @llvm.lifetime.end.p0(i64 1, ptr %3) #7
  ret ptr %12
}